#include <math.h>
#include <stdio.h>
#include <stdlib.h>
#include <string.h>

main()
{
int max,i,j,k,n,m,a[100],f[100];
scanf("%d",&n);
for (i=1;i<=n;i++)
scanf("%d",&a[i]);
f[n]=1;
max=1;
for (i=n-1;i>=1;i--)
{
k=0;
for (j=i+1;j<=n;j++)
{
if (a[j]<=a[i]) k=(f[j]>k)?f[j]:k;
}
k++;
f[i]=k;
max=(max>f[i])?max:f[i];
}
printf("%d",max);
}
