; ModuleID = '10/1318.c'
source_filename = "10/1318.c"
target datalayout = "e-m:e-p270:32:32-p271:32:32-p272:64:64-i64:64-f80:128-n8:16:32:64-S128"
target triple = "x86_64-pc-linux-gnu"

@.str = private unnamed_addr constant [3 x i8] c"%d\00", align 1

; Function Attrs: noinline nounwind uwtable
define dso_local i32 @main() #0 {
  %1 = alloca i32, align 4
  %2 = alloca i32, align 4
  %3 = alloca i32, align 4
  %4 = alloca i32, align 4
  %5 = alloca i32, align 4
  %6 = alloca i32, align 4
  %7 = alloca i32, align 4
  %8 = alloca [100 x i32], align 16
  %9 = alloca [100 x i32], align 16
  store i32 0, i32* %1, align 4
  %10 = call i32 (i8*, ...) @__isoc99_scanf(i8* getelementptr inbounds ([3 x i8], [3 x i8]* @.str, i64 0, i64 0), i32* %6)
  store i32 1, i32* %3, align 4
  br label %11

11:                                               ; preds = %20, %0
  %12 = load i32, i32* %3, align 4
  %13 = load i32, i32* %6, align 4
  %14 = icmp sle i32 %12, %13
  br i1 %14, label %15, label %23

15:                                               ; preds = %11
  %16 = load i32, i32* %3, align 4
  %17 = sext i32 %16 to i64
  %18 = getelementptr inbounds [100 x i32], [100 x i32]* %8, i64 0, i64 %17
  %19 = call i32 (i8*, ...) @__isoc99_scanf(i8* getelementptr inbounds ([3 x i8], [3 x i8]* @.str, i64 0, i64 0), i32* %18)
  br label %20

20:                                               ; preds = %15
  %21 = load i32, i32* %3, align 4
  %22 = add nsw i32 %21, 1
  store i32 %22, i32* %3, align 4
  br label %11

23:                                               ; preds = %11
  %24 = load i32, i32* %6, align 4
  %25 = sext i32 %24 to i64
  %26 = getelementptr inbounds [100 x i32], [100 x i32]* %9, i64 0, i64 %25
  store i32 1, i32* %26, align 4
  store i32 1, i32* %2, align 4
  %27 = load i32, i32* %6, align 4
  %28 = sub nsw i32 %27, 1
  store i32 %28, i32* %3, align 4
  br label %29

29:                                               ; preds = %91, %23
  %30 = load i32, i32* %3, align 4
  %31 = icmp sge i32 %30, 1
  br i1 %31, label %32, label %94

32:                                               ; preds = %29
  store i32 0, i32* %5, align 4
  %33 = load i32, i32* %3, align 4
  %34 = add nsw i32 %33, 1
  store i32 %34, i32* %4, align 4
  br label %35

35:                                               ; preds = %66, %32
  %36 = load i32, i32* %4, align 4
  %37 = load i32, i32* %6, align 4
  %38 = icmp sle i32 %36, %37
  br i1 %38, label %39, label %69

39:                                               ; preds = %35
  %40 = load i32, i32* %4, align 4
  %41 = sext i32 %40 to i64
  %42 = getelementptr inbounds [100 x i32], [100 x i32]* %8, i64 0, i64 %41
  %43 = load i32, i32* %42, align 4
  %44 = load i32, i32* %3, align 4
  %45 = sext i32 %44 to i64
  %46 = getelementptr inbounds [100 x i32], [100 x i32]* %8, i64 0, i64 %45
  %47 = load i32, i32* %46, align 4
  %48 = icmp sle i32 %43, %47
  br i1 %48, label %49, label %65

49:                                               ; preds = %39
  %50 = load i32, i32* %4, align 4
  %51 = sext i32 %50 to i64
  %52 = getelementptr inbounds [100 x i32], [100 x i32]* %9, i64 0, i64 %51
  %53 = load i32, i32* %52, align 4
  %54 = load i32, i32* %5, align 4
  %55 = icmp sgt i32 %53, %54
  br i1 %55, label %56, label %61

56:                                               ; preds = %49
  %57 = load i32, i32* %4, align 4
  %58 = sext i32 %57 to i64
  %59 = getelementptr inbounds [100 x i32], [100 x i32]* %9, i64 0, i64 %58
  %60 = load i32, i32* %59, align 4
  br label %63

61:                                               ; preds = %49
  %62 = load i32, i32* %5, align 4
  br label %63

63:                                               ; preds = %61, %56
  %64 = phi i32 [ %60, %56 ], [ %62, %61 ]
  store i32 %64, i32* %5, align 4
  br label %65

65:                                               ; preds = %63, %39
  br label %66

66:                                               ; preds = %65
  %67 = load i32, i32* %4, align 4
  %68 = add nsw i32 %67, 1
  store i32 %68, i32* %4, align 4
  br label %35

69:                                               ; preds = %35
  %70 = load i32, i32* %5, align 4
  %71 = add nsw i32 %70, 1
  store i32 %71, i32* %5, align 4
  %72 = load i32, i32* %5, align 4
  %73 = load i32, i32* %3, align 4
  %74 = sext i32 %73 to i64
  %75 = getelementptr inbounds [100 x i32], [100 x i32]* %9, i64 0, i64 %74
  store i32 %72, i32* %75, align 4
  %76 = load i32, i32* %2, align 4
  %77 = load i32, i32* %3, align 4
  %78 = sext i32 %77 to i64
  %79 = getelementptr inbounds [100 x i32], [100 x i32]* %9, i64 0, i64 %78
  %80 = load i32, i32* %79, align 4
  %81 = icmp sgt i32 %76, %80
  br i1 %81, label %82, label %84

82:                                               ; preds = %69
  %83 = load i32, i32* %2, align 4
  br label %89

84:                                               ; preds = %69
  %85 = load i32, i32* %3, align 4
  %86 = sext i32 %85 to i64
  %87 = getelementptr inbounds [100 x i32], [100 x i32]* %9, i64 0, i64 %86
  %88 = load i32, i32* %87, align 4
  br label %89

89:                                               ; preds = %84, %82
  %90 = phi i32 [ %83, %82 ], [ %88, %84 ]
  store i32 %90, i32* %2, align 4
  br label %91

91:                                               ; preds = %89
  %92 = load i32, i32* %3, align 4
  %93 = add nsw i32 %92, -1
  store i32 %93, i32* %3, align 4
  br label %29

94:                                               ; preds = %29
  %95 = load i32, i32* %2, align 4
  %96 = call i32 (i8*, ...) @printf(i8* getelementptr inbounds ([3 x i8], [3 x i8]* @.str, i64 0, i64 0), i32 %95)
  %97 = load i32, i32* %1, align 4
  ret i32 %97
}

declare dso_local i32 @__isoc99_scanf(i8*, ...) #1

declare dso_local i32 @printf(i8*, ...) #1


!llvm.module.flags = !{!0}
!llvm.ident = !{!1}

!0 = !{i32 1, !"wchar_size", i32 4}
!1 = !{!"clang version 10.0.0-4ubuntu1 "}
